; Function Attrs: mustprogress uwtable
define void @_ZN15ColumnListModelC2EP7QObject(ptr noundef nonnull align 8 dereferenceable(16) %0, ptr noundef %1) unnamed_addr #2 align 2 personality ptr @__gxx_personality_v0 {
  tail call void @_ZN19QAbstractTableModelC2EP7QObject(ptr noundef nonnull align 8 dereferenceable(16) %0, ptr noundef %1)
  store ptr getelementptr inbounds ({ [51 x ptr] }, ptr @_ZTV15ColumnListModel, i64 0, i32 0, i64 2), ptr %0, align 8
  invoke void @_ZN15ColumnListModel8populateEv(ptr nonnull align 8 poison)
          to label %3 unwind label %4

3:                                                ; preds = %2
  ret void

4:                                                ; preds = %2
  %5 = landingpad { ptr, i32 }
          cleanup
  tail call void @_ZN19QAbstractTableModelD2Ev(ptr noundef nonnull align 8 dereferenceable(16) %0) #20
  resume { ptr, i32 } %5
}